target datalayout = "e-m:e-p270:32:32-p271:32:32-p272:64:64-i64:64-i128:128-f80:128-n8:16:32:64-S128"
target triple = "x86_64-pc-linux-gnu"

%struct.strbuf = type { i64, i64, ptr }
%struct.ref_formatting_state = type { i32, ptr }
%struct.ref_formatting_stack = type { ptr, %struct.strbuf, ptr, ptr, ptr }
%struct.if_then_else = type { i32, ptr, i8 }

@.str.24 = private unnamed_addr constant [1 x i8] zeroinitializer, align 1
@git_gettext_enabled = external global i32, align 4
@.str.69 = private unnamed_addr constant [3 x i8] c"if\00", align 1
@.str.70 = private unnamed_addr constant [5 x i8] c"then\00", align 1
@.str.71 = private unnamed_addr constant [5 x i8] c"else\00", align 1
@.str.173 = private unnamed_addr constant [47 x i8] c"format: %%(%s) atom used without a %%(%s) atom\00", align 1
@.str.176 = private unnamed_addr constant [42 x i8] c"format: %%(else) atom used more than once\00", align 1

; Function Attrs: nounwind uwtable
define internal void @push_stack_element(ptr noundef %0) #0 {
  %2 = alloca ptr, align 8
  %3 = alloca ptr, align 8
  store ptr %0, ptr %2, align 8, !tbaa !166
  call void @llvm.lifetime.start.p0(i64 8, ptr %3) #11
  %4 = call ptr @xcalloc(i64 noundef 1, i64 noundef 56)
  store ptr %4, ptr %3, align 8, !tbaa !168
  %5 = load ptr, ptr %3, align 8, !tbaa !168
  %6 = getelementptr inbounds nuw %struct.ref_formatting_stack, ptr %5, i32 0, i32 1
  call void @strbuf_init(ptr noundef %6, i64 noundef 0)
  %7 = load ptr, ptr %2, align 8, !tbaa !166
  %8 = load ptr, ptr %7, align 8, !tbaa !168
  %9 = load ptr, ptr %3, align 8, !tbaa !168
  %10 = getelementptr inbounds nuw %struct.ref_formatting_stack, ptr %9, i32 0, i32 0
  store ptr %8, ptr %10, align 8, !tbaa !164
  %11 = load ptr, ptr %3, align 8, !tbaa !168
  %12 = load ptr, ptr %2, align 8, !tbaa !166
  store ptr %11, ptr %12, align 8, !tbaa !168
  call void @llvm.lifetime.end.p0(i64 8, ptr %3) #11
  ret void
}

; Function Attrs: inlinehint nounwind uwtable
define internal ptr @_(ptr noundef %0) #1 {
  %2 = alloca ptr, align 8
  %3 = alloca ptr, align 8
  store ptr %0, ptr %3, align 8, !tbaa !13
  %4 = load ptr, ptr %3, align 8, !tbaa !13
  %5 = load i8, ptr %4, align 1, !tbaa !14
  %6 = icmp ne i8 %5, 0
  br i1 %6, label %8, label %7

7:                                                ; preds = %1
  store ptr @.str.24, ptr %2, align 8
  br label %16

8:                                                ; preds = %1
  %9 = load i32, ptr @git_gettext_enabled, align 4, !tbaa !15
  %10 = icmp ne i32 %9, 0
  br i1 %10, label %13, label %11

11:                                               ; preds = %8
  %12 = load ptr, ptr %3, align 8, !tbaa !13
  store ptr %12, ptr %2, align 8
  br label %16

13:                                               ; preds = %8
  %14 = load ptr, ptr %3, align 8, !tbaa !13
  %15 = call ptr @dcgettext(ptr noundef null, ptr noundef %14, i32 noundef 5) #11
  store ptr %15, ptr %2, align 8
  br label %16

16:                                               ; preds = %13, %11, %7
  %17 = load ptr, ptr %2, align 8
  ret ptr %17
}

; Function Attrs: nounwind uwtable
define internal i32 @else_atom_handler(ptr noundef %0, ptr noundef %1, ptr noundef %2) #0 {
  %4 = alloca i32, align 4
  %5 = alloca ptr, align 8
  %6 = alloca ptr, align 8
  %7 = alloca ptr, align 8
  %8 = alloca ptr, align 8
  %9 = alloca ptr, align 8
  %10 = alloca i32, align 4
  store ptr %0, ptr %5, align 8, !tbaa !89
  store ptr %1, ptr %6, align 8, !tbaa !169
  store ptr %2, ptr %7, align 8, !tbaa !36
  call void @llvm.lifetime.start.p0(i64 8, ptr %8) #11
  %11 = load ptr, ptr %6, align 8, !tbaa !169
  %12 = getelementptr inbounds nuw %struct.ref_formatting_state, ptr %11, i32 0, i32 1
  %13 = load ptr, ptr %12, align 8, !tbaa !163
  store ptr %13, ptr %8, align 8, !tbaa !168
  call void @llvm.lifetime.start.p0(i64 8, ptr %9) #11
  store ptr null, ptr %9, align 8, !tbaa !272
  %14 = load ptr, ptr %8, align 8, !tbaa !168
  %15 = getelementptr inbounds nuw %struct.ref_formatting_stack, ptr %14, i32 0, i32 2
  %16 = load ptr, ptr %15, align 8, !tbaa !269
  %17 = icmp eq ptr %16, @if_then_else_handler
  br i1 %17, label %18, label %22

18:                                               ; preds = %3
  %19 = load ptr, ptr %8, align 8, !tbaa !168
  %20 = getelementptr inbounds nuw %struct.ref_formatting_stack, ptr %19, i32 0, i32 4
  %21 = load ptr, ptr %20, align 8, !tbaa !175
  store ptr %21, ptr %9, align 8, !tbaa !272
  br label %22

22:                                               ; preds = %18, %3
  %23 = load ptr, ptr %9, align 8, !tbaa !272
  %24 = icmp ne ptr %23, null
  br i1 %24, label %29, label %25

25:                                               ; preds = %22
  %26 = load ptr, ptr %7, align 8, !tbaa !36
  %27 = call ptr @_(ptr noundef @.str.173)
  %28 = call i32 (ptr, i32, ptr, ...) @strbuf_addf_ret(ptr noundef %26, i32 noundef -1, ptr noundef %27, ptr noundef @.str.71, ptr noundef @.str.69)
  store i32 %28, ptr %4, align 4
  store i32 1, ptr %10, align 4
  br label %74

29:                                               ; preds = %22
  %30 = load ptr, ptr %9, align 8, !tbaa !272
  %31 = getelementptr inbounds nuw %struct.if_then_else, ptr %30, i32 0, i32 2
  %32 = load i8, ptr %31, align 8
  %33 = and i8 %32, 1
  %34 = zext i8 %33 to i32
  %35 = icmp ne i32 %34, 0
  br i1 %35, label %40, label %36

36:                                               ; preds = %29
  %37 = load ptr, ptr %7, align 8, !tbaa !36
  %38 = call ptr @_(ptr noundef @.str.173)
  %39 = call i32 (ptr, i32, ptr, ...) @strbuf_addf_ret(ptr noundef %37, i32 noundef -1, ptr noundef %38, ptr noundef @.str.71, ptr noundef @.str.70)
  store i32 %39, ptr %4, align 4
  store i32 1, ptr %10, align 4
  br label %74

40:                                               ; preds = %29
  %41 = load ptr, ptr %9, align 8, !tbaa !272
  %42 = getelementptr inbounds nuw %struct.if_then_else, ptr %41, i32 0, i32 2
  %43 = load i8, ptr %42, align 8
  %44 = lshr i8 %43, 1
  %45 = and i8 %44, 1
  %46 = zext i8 %45 to i32
  %47 = icmp ne i32 %46, 0
  br i1 %47, label %48, label %52

48:                                               ; preds = %40
  %49 = load ptr, ptr %7, align 8, !tbaa !36
  %50 = call ptr @_(ptr noundef @.str.176)
  %51 = call i32 (ptr, i32, ptr, ...) @strbuf_addf_ret(ptr noundef %49, i32 noundef -1, ptr noundef %50)
  store i32 %51, ptr %4, align 4
  store i32 1, ptr %10, align 4
  br label %74

52:                                               ; preds = %40
  %53 = load ptr, ptr %9, align 8, !tbaa !272
  %54 = getelementptr inbounds nuw %struct.if_then_else, ptr %53, i32 0, i32 2
  %55 = load i8, ptr %54, align 8
  %56 = and i8 %55, -3
  %57 = or i8 %56, 2
  store i8 %57, ptr %54, align 8
  %58 = load ptr, ptr %6, align 8, !tbaa !169
  %59 = getelementptr inbounds nuw %struct.ref_formatting_state, ptr %58, i32 0, i32 1
  call void @push_stack_element(ptr noundef %59)
  %60 = load ptr, ptr %8, align 8, !tbaa !168
  %61 = getelementptr inbounds nuw %struct.ref_formatting_stack, ptr %60, i32 0, i32 4
  %62 = load ptr, ptr %61, align 8, !tbaa !175
  %63 = load ptr, ptr %6, align 8, !tbaa !169
  %64 = getelementptr inbounds nuw %struct.ref_formatting_state, ptr %63, i32 0, i32 1
  %65 = load ptr, ptr %64, align 8, !tbaa !163
  %66 = getelementptr inbounds nuw %struct.ref_formatting_stack, ptr %65, i32 0, i32 4
  store ptr %62, ptr %66, align 8, !tbaa !175
  %67 = load ptr, ptr %8, align 8, !tbaa !168
  %68 = getelementptr inbounds nuw %struct.ref_formatting_stack, ptr %67, i32 0, i32 2
  %69 = load ptr, ptr %68, align 8, !tbaa !269
  %70 = load ptr, ptr %6, align 8, !tbaa !169
  %71 = getelementptr inbounds nuw %struct.ref_formatting_state, ptr %70, i32 0, i32 1
  %72 = load ptr, ptr %71, align 8, !tbaa !163
  %73 = getelementptr inbounds nuw %struct.ref_formatting_stack, ptr %72, i32 0, i32 2
  store ptr %69, ptr %73, align 8, !tbaa !269
  store i32 0, ptr %4, align 4
  store i32 1, ptr %10, align 4
  br label %74

74:                                               ; preds = %52, %48, %36, %25
  call void @llvm.lifetime.end.p0(i64 8, ptr %9) #11
  call void @llvm.lifetime.end.p0(i64 8, ptr %8) #11
  %75 = load i32, ptr %4, align 4
  ret i32 %75
}