; Function Attrs: nounwind uwtable
define internal range(i32 -1, 1) i32 @else_atom_handler(ptr readnone captures(none) %0, ptr noundef captures(none) %1, ptr noundef %2) #0 {
  %4 = getelementptr inbounds nuw i8, ptr %1, i64 8
  %5 = load ptr, ptr %4, align 8, !tbaa !157
  %6 = getelementptr inbounds nuw i8, ptr %5, i64 32
  %7 = load ptr, ptr %6, align 8, !tbaa !222
  %8 = icmp eq ptr %7, @if_then_else_handler
  br i1 %8, label %9, label %.thread

9:                                                ; preds = %3
  %10 = getelementptr inbounds nuw i8, ptr %5, i64 48
  %11 = load ptr, ptr %10, align 8, !tbaa !160
  %.not = icmp eq ptr %11, null
  br i1 %.not, label %.thread, label %15

.thread:                                          ; preds = %3, %9
  %12 = load i32, ptr @git_gettext_enabled, align 4, !tbaa !4
  %.not4.i = icmp eq i32 %12, 0
  br i1 %.not4.i, label %_.exit, label %13

13:                                               ; preds = %.thread
  %14 = tail call ptr @dcgettext(ptr noundef null, ptr noundef nonnull @.str.173, i32 noundef 5) #23
  br label %_.exit

_.exit:                                           ; preds = %.thread, %13
  %.0.i = phi ptr [ %14, %13 ], [ @.str.173, %.thread ]
  tail call void (ptr, i32, ptr, ...) @strbuf_addf_ret(ptr noundef %2, i32 poison, ptr noundef %.0.i, ptr noundef nonnull @.str.71, ptr noundef nonnull @.str.69)
  br label %38

15:                                               ; preds = %9
  %16 = getelementptr inbounds nuw i8, ptr %11, i64 16
  %17 = load i8, ptr %16, align 8
  %18 = and i8 %17, 1
  %.not16 = icmp eq i8 %18, 0
  br i1 %.not16, label %19, label %23

19:                                               ; preds = %15
  %20 = load i32, ptr @git_gettext_enabled, align 4, !tbaa !4
  %.not4.i18 = icmp eq i32 %20, 0
  br i1 %.not4.i18, label %_.exit20, label %21

21:                                               ; preds = %19
  %22 = tail call ptr @dcgettext(ptr noundef null, ptr noundef nonnull @.str.173, i32 noundef 5) #23
  br label %_.exit20

_.exit20:                                         ; preds = %19, %21
  %.0.i19 = phi ptr [ %22, %21 ], [ @.str.173, %19 ]
  tail call void (ptr, i32, ptr, ...) @strbuf_addf_ret(ptr noundef %2, i32 poison, ptr noundef %.0.i19, ptr noundef nonnull @.str.71, ptr noundef nonnull @.str.70)
  br label %38

23:                                               ; preds = %15
  %24 = and i8 %17, 2
  %.not17 = icmp eq i8 %24, 0
  br i1 %.not17, label %29, label %25

25:                                               ; preds = %23
  %26 = load i32, ptr @git_gettext_enabled, align 4, !tbaa !4
  %.not4.i21 = icmp eq i32 %26, 0
  br i1 %.not4.i21, label %_.exit23, label %27

27:                                               ; preds = %25
  %28 = tail call ptr @dcgettext(ptr noundef null, ptr noundef nonnull @.str.176, i32 noundef 5) #23
  br label %_.exit23

_.exit23:                                         ; preds = %25, %27
  %.0.i22 = phi ptr [ %28, %27 ], [ @.str.176, %25 ]
  tail call void (ptr, i32, ptr, ...) @strbuf_addf_ret(ptr noundef %2, i32 poison, ptr noundef %.0.i22)
  br label %38

29:                                               ; preds = %23
  %30 = or disjoint i8 %17, 2
  store i8 %30, ptr %16, align 8
  %31 = tail call ptr @xcalloc(i64 noundef 1, i64 noundef 56) #23
  %32 = getelementptr inbounds nuw i8, ptr %31, i64 8
  tail call void @strbuf_init(ptr noundef nonnull %32, i64 noundef 0) #23
  %33 = load ptr, ptr %4, align 8, !tbaa !155
  store ptr %33, ptr %31, align 8, !tbaa !153
  store ptr %31, ptr %4, align 8, !tbaa !155
  %34 = load ptr, ptr %10, align 8, !tbaa !160
  %35 = getelementptr inbounds nuw i8, ptr %31, i64 48
  store ptr %34, ptr %35, align 8, !tbaa !160
  %36 = load ptr, ptr %6, align 8, !tbaa !222
  %37 = getelementptr inbounds nuw i8, ptr %31, i64 32
  store ptr %36, ptr %37, align 8, !tbaa !222
  br label %38

38:                                               ; preds = %29, %_.exit23, %_.exit20, %_.exit
  %.015 = phi i32 [ -1, %_.exit23 ], [ 0, %29 ], [ -1, %_.exit20 ], [ -1, %_.exit ]
  ret i32 %.015
}